target datalayout = "e-m:e-p270:32:32-p271:32:32-p272:64:64-i64:64-i128:128-f80:128-n8:16:32:64-S128"
target triple = "x86_64-unknown-linux-gnu"

%"class.icu_75::UObject" = type { ptr }
%"class.icu_75::SpoofImpl" = type <{ %"class.icu_75::UObject", %"class.icu_75::IcuCApiHelper", i32, ptr, ptr, ptr, i32, [4 x i8] }>
%"class.icu_75::IcuCApiHelper" = type { i32 }

; Function Attrs: mustprogress uwtable
define ptr @uspoof_getAllowedUnicodeSet_75(ptr noundef %sc, ptr noundef %status) #0 {
entry:
  %retval = alloca ptr, align 8
  %sc.addr = alloca ptr, align 8
  %status.addr = alloca ptr, align 8
  %This = alloca ptr, align 8
  store ptr %sc, ptr %sc.addr, align 8
  store ptr %status, ptr %status.addr, align 8
  %0 = load ptr, ptr %sc.addr, align 8
  %1 = load ptr, ptr %status.addr, align 8
  %call = call noundef ptr @_ZN6icu_759SpoofImpl12validateThisEPK13USpoofCheckerR10UErrorCode(ptr noundef %0, ptr noundef nonnull align 4 dereferenceable(4) %1)
  store ptr %call, ptr %This, align 8
  %2 = load ptr, ptr %This, align 8
  %cmp = icmp eq ptr %2, null
  br i1 %cmp, label %if.then, label %if.end

if.then:                                          ; preds = %entry
  store ptr null, ptr %retval, align 8
  br label %return

if.end:                                           ; preds = %entry
  %3 = load ptr, ptr %This, align 8
  %fAllowedCharsSet = getelementptr inbounds %"class.icu_75::SpoofImpl", ptr %3, i32 0, i32 4
  %4 = load ptr, ptr %fAllowedCharsSet, align 8
  store ptr %4, ptr %retval, align 8
  br label %return

return:                                           ; preds = %if.end, %if.then
  %5 = load ptr, ptr %retval, align 8
  ret ptr %5
}