; Function Attrs: mustprogress uwtable
define ptr @uspoof_getAllowedUnicodeSet_75(ptr noundef %sc, ptr noundef nonnull %status) local_unnamed_addr #0 {
entry:
  %call = tail call noundef ptr @_ZN6icu_759SpoofImpl12validateThisEPK13USpoofCheckerR10UErrorCode(ptr noundef %sc, ptr noundef nonnull align 4 dereferenceable(4) %status)
  %cmp = icmp eq ptr %call, null
  br i1 %cmp, label %return, label %if.end

if.end:                                           ; preds = %entry
  %fAllowedCharsSet = getelementptr inbounds i8, ptr %call, i64 24
  %0 = load ptr, ptr %fAllowedCharsSet, align 8
  br label %return

return:                                           ; preds = %entry, %if.end
  %retval.0 = phi ptr [ %0, %if.end ], [ null, %entry ]
  ret ptr %retval.0
}